; Function Attrs: mustprogress ssp uwtable
define void @_ZN6open3d4core7HashSet6InsertERKNS0_6TensorERS2_S5_(ptr noundef nonnull readonly align 8 captures(none) dereferenceable(24) %0, ptr noundef nonnull align 8 dereferenceable(160) %1, ptr noundef nonnull align 8 dereferenceable(160) %2, ptr noundef nonnull align 8 dereferenceable(160) %3) local_unnamed_addr #1 align 2 personality ptr @__gxx_personality_v0 {
  %5 = alloca %"class.std::vector.15", align 8
  %6 = getelementptr inbounds nuw i8, ptr %0, i64 8
  %7 = load ptr, ptr %6, align 8, !tbaa !19
  call void @llvm.lifetime.start.p0(i64 24, ptr nonnull %5) #19
  call void @llvm.memset.p0.i64(ptr noundef nonnull align 8 dereferenceable(24) %5, i8 0, i64 24, i1 false)
  invoke void @_ZN6open3d4core7HashMap6InsertERKNS0_6TensorERKSt6vectorIS2_SaIS2_EERS2_SA_(ptr noundef nonnull align 8 dereferenceable(152) %7, ptr noundef nonnull align 8 dereferenceable(160) %1, ptr noundef nonnull align 8 dereferenceable(24) %5, ptr noundef nonnull align 8 dereferenceable(160) %2, ptr noundef nonnull align 8 dereferenceable(160) %3)
          to label %8 unwind label %22

8:                                                ; preds = %4
  %9 = load ptr, ptr %5, align 8, !tbaa !64
  %10 = getelementptr inbounds nuw i8, ptr %5, i64 8
  %11 = load ptr, ptr %10, align 8, !tbaa !67
  %.not4.i.i.i = icmp eq ptr %9, %11
  br i1 %.not4.i.i.i, label %_ZSt8_DestroyIPN6open3d4core6TensorES2_EvT_S4_RSaIT0_E.exit.i, label %.lr.ph.i.i.i

.lr.ph.i.i.i:                                     ; preds = %8, %.lr.ph.i.i.i
  %.05.i.i.i = phi ptr [ %14, %.lr.ph.i.i.i ], [ %9, %8 ]
  %12 = load ptr, ptr %.05.i.i.i, align 8, !tbaa !4
  %13 = load ptr, ptr %12, align 8
  call void %13(ptr noundef nonnull align 8 dereferenceable(160) %.05.i.i.i) #19
  %14 = getelementptr inbounds nuw i8, ptr %.05.i.i.i, i64 160
  %.not.i.i.i = icmp eq ptr %14, %11
  br i1 %.not.i.i.i, label %_ZSt8_DestroyIPN6open3d4core6TensorES2_EvT_S4_RSaIT0_E.exitthread-pre-split.i, label %.lr.ph.i.i.i, !llvm.loop !68

_ZSt8_DestroyIPN6open3d4core6TensorES2_EvT_S4_RSaIT0_E.exitthread-pre-split.i: ; preds = %.lr.ph.i.i.i
  %.pr.i = load ptr, ptr %5, align 8, !tbaa !64
  br label %_ZSt8_DestroyIPN6open3d4core6TensorES2_EvT_S4_RSaIT0_E.exit.i

_ZSt8_DestroyIPN6open3d4core6TensorES2_EvT_S4_RSaIT0_E.exit.i: ; preds = %_ZSt8_DestroyIPN6open3d4core6TensorES2_EvT_S4_RSaIT0_E.exitthread-pre-split.i, %8
  %15 = phi ptr [ %.pr.i, %_ZSt8_DestroyIPN6open3d4core6TensorES2_EvT_S4_RSaIT0_E.exitthread-pre-split.i ], [ %9, %8 ]
  %.not.i.i1.i = icmp eq ptr %15, null
  br i1 %.not.i.i1.i, label %_ZNSt6vectorIN6open3d4core6TensorESaIS2_EED2Ev.exit, label %16

16:                                               ; preds = %_ZSt8_DestroyIPN6open3d4core6TensorES2_EvT_S4_RSaIT0_E.exit.i
  %17 = getelementptr inbounds nuw i8, ptr %5, i64 16
  %18 = load ptr, ptr %17, align 8, !tbaa !69
  %19 = ptrtoint ptr %18 to i64
  %20 = ptrtoint ptr %15 to i64
  %21 = sub i64 %19, %20
  call void @_ZdlPvm(ptr noundef nonnull %15, i64 noundef %21) #20
  br label %_ZNSt6vectorIN6open3d4core6TensorESaIS2_EED2Ev.exit

_ZNSt6vectorIN6open3d4core6TensorESaIS2_EED2Ev.exit: ; preds = %_ZSt8_DestroyIPN6open3d4core6TensorES2_EvT_S4_RSaIT0_E.exit.i, %16
  call void @llvm.lifetime.end.p0(i64 24, ptr nonnull %5) #19
  ret void

22:                                               ; preds = %4
  %23 = landingpad { ptr, i32 }
          cleanup
  call void @_ZNSt6vectorIN6open3d4core6TensorESaIS2_EED2Ev(ptr noundef nonnull align 8 dereferenceable(24) %5) #19
  call void @llvm.lifetime.end.p0(i64 24, ptr nonnull %5) #19
  resume { ptr, i32 } %23
}